; Function Attrs: nounwind uwtable
define hidden void @zif_phpinfo(ptr noundef %0, ptr nocapture noundef writeonly %1) local_unnamed_addr #0 {
  %3 = alloca i64, align 8
  store i64 4294967295, ptr %3, align 8
  %4 = getelementptr inbounds i8, ptr %0, i64 44
  %5 = load i32, ptr %4, align 4
  %6 = icmp ugt i32 %5, 1
  br i1 %6, label %.thread76, label %7

7:                                                ; preds = %2
  %8 = icmp eq i32 %5, 0
  br i1 %8, label %.thread84, label %9

9:                                                ; preds = %7
  %10 = getelementptr inbounds i8, ptr %0, i64 80
  %11 = getelementptr inbounds i8, ptr %0, i64 88
  %12 = load i8, ptr %11, align 8
  %13 = icmp eq i8 %12, 4
  br i1 %13, label %.thread66, label %15

.thread66:                                        ; preds = %9
  %14 = load i64, ptr %10, align 8
  store i64 %14, ptr %3, align 8
  br label %.thread84

15:                                               ; preds = %9
  %16 = call zeroext i1 @zend_parse_arg_long_slow(ptr noundef nonnull %10, ptr noundef nonnull %3, i32 noundef 1) #14
  %.fr = freeze i1 %16
  br i1 %.fr, label %.thread84, label %17

.thread76:                                        ; preds = %2
  tail call void @zend_wrong_parameters_count_error(i32 noundef 0, i32 noundef 1) #14
  br label %17

17:                                               ; preds = %15, %.thread76
  %.083 = phi i32 [ 1, %.thread76 ], [ 9, %15 ]
  %.05782 = phi ptr [ null, %.thread76 ], [ %10, %15 ]
  %.05881 = phi i32 [ 0, %.thread76 ], [ 1, %15 ]
  call void @zend_wrong_parameter_error(i32 noundef %.083, i32 noundef %.05881, ptr noundef null, i32 noundef 0, ptr noundef %.05782) #14
  br label %23

.thread84:                                        ; preds = %15, %.thread66, %7
  %18 = call i32 @php_output_start_default() #14
  %19 = load i64, ptr %3, align 8
  %20 = trunc i64 %19 to i32
  call void @php_print_info(i32 noundef %20)
  %21 = call i32 @php_output_end() #14
  %22 = getelementptr inbounds i8, ptr %1, i64 8
  store i32 3, ptr %22, align 8
  br label %23

23:                                               ; preds = %.thread84, %17
  ret void
}